; Function Attrs: mustprogress uwtable
define hidden void @_ZN17pconstructor_declC2EjjR13pdecl_managerRK6symbolS4_jPKP14paccessor_decl(ptr noundef nonnull align 8 dereferenceable(48) %this, i32 noundef %id, i32 noundef %num_params, ptr nocapture nonnull readnone align 8 %m, ptr nocapture noundef nonnull readonly align 8 dereferenceable(8) %n, ptr nocapture noundef nonnull readonly align 8 dereferenceable(8) %r, i32 noundef %num_accessors, ptr nocapture noundef readonly %accessors) unnamed_addr #3 align 2 personality ptr @__gxx_personality_v0 {
entry:
  %m_id.i = getelementptr inbounds i8, ptr %this, i64 8
  store i32 %id, ptr %m_id.i, align 8
  %m_num_params.i = getelementptr inbounds i8, ptr %this, i64 12
  store i32 %num_params, ptr %m_num_params.i, align 4
  %m_ref_count.i = getelementptr inbounds i8, ptr %this, i64 16
  store i32 0, ptr %m_ref_count.i, align 8
  store ptr getelementptr inbounds ({ [10 x ptr] }, ptr @_ZTV17pconstructor_decl, i64 0, i32 0, i64 2), ptr %this, align 8
  %m_name = getelementptr inbounds i8, ptr %this, i64 24
  %0 = load i64, ptr %n, align 8
  store i64 %0, ptr %m_name, align 8
  %m_recogniser_name = getelementptr inbounds i8, ptr %this, i64 32
  %1 = load i64, ptr %r, align 8
  store i64 %1, ptr %m_recogniser_name, align 8
  %m_accessors = getelementptr inbounds i8, ptr %this, i64 40
  store ptr null, ptr %m_accessors, align 8
  %cmp3.not.i.i = icmp eq i32 %num_accessors, 0
  br i1 %cmp3.not.i.i, label %invoke.cont3, label %for.body.preheader.i.i

for.body.preheader.i.i:                           ; preds = %entry
  %wide.trip.count.i.i = zext i32 %num_accessors to i64
  br label %for.body.i.i

for.bodythread-pre-split.i.i:                     ; preds = %_ZN6vectorIP14paccessor_declLb0EjE9push_backERKS1_.exit.i.i
  %.pr.i.i = load ptr, ptr %m_accessors, align 8
  br label %for.body.i.i

for.body.i.i:                                     ; preds = %for.bodythread-pre-split.i.i, %for.body.preheader.i.i
  %2 = phi ptr [ %.pr.i.i, %for.bodythread-pre-split.i.i ], [ null, %for.body.preheader.i.i ]
  %indvars.iv.i.i = phi i64 [ %indvars.iv.next.i.i, %for.bodythread-pre-split.i.i ], [ 0, %for.body.preheader.i.i ]
  %arrayidx.i.i = getelementptr inbounds ptr, ptr %accessors, i64 %indvars.iv.i.i
  %cmp.i.i.i = icmp eq ptr %2, null
  br i1 %cmp.i.i.i, label %if.then.i.i.i, label %lor.lhs.false.i.i.i

lor.lhs.false.i.i.i:                              ; preds = %for.body.i.i
  %arrayidx.i.i.i = getelementptr inbounds i8, ptr %2, i64 -4
  %3 = load i32, ptr %arrayidx.i.i.i, align 4
  %arrayidx4.i.i.i = getelementptr inbounds i8, ptr %2, i64 -8
  %4 = load i32, ptr %arrayidx4.i.i.i, align 4
  %cmp5.i.i.i = icmp eq i32 %3, %4
  br i1 %cmp5.i.i.i, label %if.then.i.i.i, label %_ZN6vectorIP14paccessor_declLb0EjE9push_backERKS1_.exit.i.i

if.then.i.i.i:                                    ; preds = %lor.lhs.false.i.i.i, %for.body.i.i
  tail call void @_ZN6vectorIP14paccessor_declLb0EjE13expand_vectorEv(ptr noundef nonnull align 8 dereferenceable(8) %m_accessors)
  %.pre.i.i.i = load ptr, ptr %m_accessors, align 8
  %arrayidx8.phi.trans.insert.i.i.i = getelementptr inbounds i8, ptr %.pre.i.i.i, i64 -4
  %.pre1.i.i.i = load i32, ptr %arrayidx8.phi.trans.insert.i.i.i, align 4
  br label %_ZN6vectorIP14paccessor_declLb0EjE9push_backERKS1_.exit.i.i

_ZN6vectorIP14paccessor_declLb0EjE9push_backERKS1_.exit.i.i: ; preds = %if.then.i.i.i, %lor.lhs.false.i.i.i
  %5 = phi i32 [ %.pre1.i.i.i, %if.then.i.i.i ], [ %3, %lor.lhs.false.i.i.i ]
  %6 = phi ptr [ %.pre.i.i.i, %if.then.i.i.i ], [ %2, %lor.lhs.false.i.i.i ]
  %idx.ext.i.i.i = zext i32 %5 to i64
  %add.ptr.i.i.i = getelementptr inbounds ptr, ptr %6, i64 %idx.ext.i.i.i
  %7 = load ptr, ptr %arrayidx.i.i, align 8
  store ptr %7, ptr %add.ptr.i.i.i, align 8
  %8 = load ptr, ptr %m_accessors, align 8
  %arrayidx10.i.i.i = getelementptr inbounds i8, ptr %8, i64 -4
  %9 = load i32, ptr %arrayidx10.i.i.i, align 4
  %inc.i.i.i = add i32 %9, 1
  store i32 %inc.i.i.i, ptr %arrayidx10.i.i.i, align 4
  %indvars.iv.next.i.i = add nuw nsw i64 %indvars.iv.i.i, 1
  %exitcond.not.i.i = icmp eq i64 %indvars.iv.next.i.i, %wide.trip.count.i.i
  br i1 %exitcond.not.i.i, label %for.body.i, label %for.bodythread-pre-split.i.i, !llvm.loop !24

for.body.i:                                       ; preds = %_ZN6vectorIP14paccessor_declLb0EjE9push_backERKS1_.exit.i.i, %_ZN13pdecl_manager7inc_refEP5pdecl.exit.i
  %indvars.iv.i = phi i64 [ %indvars.iv.next.i, %_ZN13pdecl_manager7inc_refEP5pdecl.exit.i ], [ 0, %_ZN6vectorIP14paccessor_declLb0EjE9push_backERKS1_.exit.i.i ]
  %arrayidx.i = getelementptr inbounds ptr, ptr %accessors, i64 %indvars.iv.i
  %10 = load ptr, ptr %arrayidx.i, align 8
  %tobool.not.i.i = icmp eq ptr %10, null
  br i1 %tobool.not.i.i, label %_ZN13pdecl_manager7inc_refEP5pdecl.exit.i, label %if.then.i.i

if.then.i.i:                                      ; preds = %for.body.i
  %m_ref_count.i.i.i = getelementptr inbounds i8, ptr %10, i64 16
  %11 = load i32, ptr %m_ref_count.i.i.i, align 8
  %inc.i.i.i4 = add i32 %11, 1
  store i32 %inc.i.i.i4, ptr %m_ref_count.i.i.i, align 8
  br label %_ZN13pdecl_manager7inc_refEP5pdecl.exit.i

_ZN13pdecl_manager7inc_refEP5pdecl.exit.i:        ; preds = %if.then.i.i, %for.body.i
  %indvars.iv.next.i = add nuw nsw i64 %indvars.iv.i, 1
  %exitcond.not.i = icmp eq i64 %indvars.iv.next.i, %wide.trip.count.i.i
  br i1 %exitcond.not.i, label %invoke.cont3, label %for.body.i, !llvm.loop !25

invoke.cont3:                                     ; preds = %_ZN13pdecl_manager7inc_refEP5pdecl.exit.i, %entry
  ret void
}